target datalayout = "e-m:e-p270:32:32-p271:32:32-p272:64:64-i64:64-i128:128-f80:128-n8:16:32:64-S128"
target triple = "x86_64-unknown-linux-gnu"

; Function Attrs: mustprogress uwtable
define noundef ptr @_ZN6google8protobuf8compiler20CommandLineInterface20GeneratorContextImpl34OpenForInsertWithGeneratedCodeInfoERKNSt7__cxx1112basic_stringIcSt11char_traitsIcESaIcEEESB_RKNS0_17GeneratedCodeInfoE(ptr noundef nonnull align 8 dereferenceable(41) %this, ptr noundef nonnull align 8 dereferenceable(32) %filename, ptr noundef nonnull align 8 dereferenceable(32) %insertion_point, ptr noundef nonnull align 8 dereferenceable(48) %info) unnamed_addr #4 align 2 personality ptr @__gxx_personality_v0 {
entry:
  %this.addr = alloca ptr, align 8
  %filename.addr = alloca ptr, align 8
  %insertion_point.addr = alloca ptr, align 8
  %info.addr = alloca ptr, align 8
  %exn.slot = alloca ptr, align 8
  %ehselector.slot = alloca i32, align 4
  store ptr %this, ptr %this.addr, align 8
  store ptr %filename, ptr %filename.addr, align 8
  store ptr %insertion_point, ptr %insertion_point.addr, align 8
  store ptr %info, ptr %info.addr, align 8
  %this1 = load ptr, ptr %this.addr, align 8
  %call = call noalias noundef nonnull ptr @_Znwm(i64 noundef 176) #27
  %0 = load ptr, ptr %filename.addr, align 8
  %1 = load ptr, ptr %insertion_point.addr, align 8
  %2 = load ptr, ptr %info.addr, align 8
  invoke void @_ZN6google8protobuf8compiler20CommandLineInterface18MemoryOutputStreamC1EPNS2_20GeneratorContextImplERKNSt7__cxx1112basic_stringIcSt11char_traitsIcESaIcEEESD_RKNS0_17GeneratedCodeInfoE(ptr noundef nonnull align 8 dereferenceable(176) %call, ptr noundef %this1, ptr noundef nonnull align 8 dereferenceable(32) %0, ptr noundef nonnull align 8 dereferenceable(32) %1, ptr noundef nonnull align 8 dereferenceable(48) %2)
          to label %invoke.cont unwind label %lpad

invoke.cont:                                      ; preds = %entry
  ret ptr %call

lpad:                                             ; preds = %entry
  %3 = landingpad { ptr, i32 }
          cleanup
  %4 = extractvalue { ptr, i32 } %3, 0
  store ptr %4, ptr %exn.slot, align 8
  %5 = extractvalue { ptr, i32 } %3, 1
  store i32 %5, ptr %ehselector.slot, align 4
  call void @_ZdlPv(ptr noundef %call) #28
  br label %eh.resume

eh.resume:                                        ; preds = %lpad
  %exn = load ptr, ptr %exn.slot, align 8
  %sel = load i32, ptr %ehselector.slot, align 4
  %lpad.val = insertvalue { ptr, i32 } poison, ptr %exn, 0
  %lpad.val2 = insertvalue { ptr, i32 } %lpad.val, i32 %sel, 1
  resume { ptr, i32 } %lpad.val2
}