; Function Attrs: mustprogress uwtable
define noundef ptr @_ZN6google8protobuf8compiler20CommandLineInterface20GeneratorContextImpl34OpenForInsertWithGeneratedCodeInfoERKNSt7__cxx1112basic_stringIcSt11char_traitsIcESaIcEEESB_RKNS0_17GeneratedCodeInfoE(ptr noundef nonnull align 8 dereferenceable(41) %this, ptr noundef nonnull align 8 dereferenceable(32) %filename, ptr noundef nonnull align 8 dereferenceable(32) %insertion_point, ptr noundef nonnull align 8 dereferenceable(48) %info) unnamed_addr #5 align 2 personality ptr @__gxx_personality_v0 {
entry:
  %call = tail call noalias noundef nonnull dereferenceable(176) ptr @_Znwm(i64 noundef 176) #32
  invoke void @_ZN6google8protobuf8compiler20CommandLineInterface18MemoryOutputStreamC1EPNS2_20GeneratorContextImplERKNSt7__cxx1112basic_stringIcSt11char_traitsIcESaIcEEESD_RKNS0_17GeneratedCodeInfoE(ptr noundef nonnull align 8 dereferenceable(176) %call, ptr noundef nonnull %this, ptr noundef nonnull align 8 dereferenceable(32) %filename, ptr noundef nonnull align 8 dereferenceable(32) %insertion_point, ptr noundef nonnull align 8 dereferenceable(48) %info)
          to label %invoke.cont unwind label %lpad

invoke.cont:                                      ; preds = %entry
  ret ptr %call

lpad:                                             ; preds = %entry
  %0 = landingpad { ptr, i32 }
          cleanup
  tail call void @_ZdlPv(ptr noundef nonnull %call) #31
  resume { ptr, i32 } %0
}